ccopy_reg
_reconstructor
p0
(csklearn.linear_model.base
LinearRegression
p1
c__builtin__
object
p2
Ntp3
Rp4
(dp5
S'normalize'
p6
I00
sS'n_jobs'
p7
I-1
sS'rank_'
p8
I4
sS'fit_intercept'
p9
I01
sS'_residues'
p10
cnumpy.core.multiarray
scalar
p11
(cnumpy
dtype
p12
(S'f8'
p13
I0
I1
tp14
Rp15
(I3
S'<'
p16
NNNI-1
I-1
I0
tp17
bS'\xca\xbb\x89\xce\xb7\xe3MA'
p18
tp19
Rp20
sS'coef_'
p21
cnumpy.core.multiarray
_reconstruct
p22
(cnumpy
ndarray
p23
(I0
tp24
S'b'
p25
tp26
Rp27
(I1
(L4L
tp28
g15
I00
S'9\x89s\x82pEp@\xa8@\x8ad=\xdb\xf0\xbf\xa9=\x98]\x13f\xdf\xbf\x8f\x17!f\x04\xb9\x05\xc0'
p29
tp30
bsS'_sklearn_version'
p31
S'0.19.1'
p32
sS'copy_X'
p33
I01
sS'intercept_'
p34
g11
(g15
S'\xf6uw\xa8y@z@'
p35
tp36
Rp37
sS'singular_'
p38
g22
(g23
(I0
tp39
g25
tp40
Rp41
(I1
(L4L
tp42
g15
I00
S'G\x08\x1c\xcc\x90BR@\xaa\x06C.\xf9\xfaM@;T5\xc6\x8bxA@oz-\xcc\x9a\x837@'
p43
tp44
bsb.